target datalayout = "e-m:e-p270:32:32-p271:32:32-p272:64:64-i64:64-i128:128-f80:128-n8:16:32:64-S128"
target triple = "x86_64-pc-linux-gnu"

%struct.ClusterInfo = type { %struct.ControlData, ptr, %struct.DbInfoArr, ptr, ptr, ptr, ptr, ptr, i16, i32, [64 x i8], i32, ptr, i32 }
%struct.ControlData = type { i32, i32, [25 x i8], i32, i32, i32, i32, i32, i32, i32, i32, i32, i32, i32, i32, i32, i32, i32, i32, i8, i8, i32 }
%struct.DbInfoArr = type { ptr, i32 }

@.str.7 = private unnamed_addr constant [14 x i8] c"%s/PG_VERSION\00", align 1
@.str.8 = private unnamed_addr constant [2 x i8] c"r\00", align 1
@.str.9 = private unnamed_addr constant [37 x i8] c"could not open version file \22%s\22: %m\00", align 1
@.str.10 = private unnamed_addr constant [5 x i8] c"%63s\00", align 1
@.str.11 = private unnamed_addr constant [6 x i8] c"%d.%d\00", align 1
@.str.12 = private unnamed_addr constant [34 x i8] c"could not parse version file \22%s\22\00", align 1

; Function Attrs: nounwind uwtable
define dso_local i32 @get_major_server_version(ptr noundef %0) #0 {
  %2 = alloca i32, align 4
  %3 = alloca ptr, align 8
  %4 = alloca ptr, align 8
  %5 = alloca [1024 x i8], align 16
  %6 = alloca i32, align 4
  %7 = alloca i32, align 4
  %8 = alloca i32, align 4
  store ptr %0, ptr %3, align 8
  call void @llvm.lifetime.start.p0(i64 8, ptr %4) #9
  call void @llvm.lifetime.start.p0(i64 1024, ptr %5) #9
  call void @llvm.lifetime.start.p0(i64 4, ptr %6) #9
  store i32 0, ptr %6, align 4
  call void @llvm.lifetime.start.p0(i64 4, ptr %7) #9
  store i32 0, ptr %7, align 4
  %9 = getelementptr inbounds [1024 x i8], ptr %5, i64 0, i64 0
  %10 = load ptr, ptr %3, align 8
  %11 = getelementptr inbounds nuw %struct.ClusterInfo, ptr %10, i32 0, i32 3
  %12 = load ptr, ptr %11, align 8
  %13 = call i32 (ptr, i64, ptr, ...) @pg_snprintf(ptr noundef %9, i64 noundef 1024, ptr noundef @.str.7, ptr noundef %12)
  %14 = getelementptr inbounds [1024 x i8], ptr %5, i64 0, i64 0
  %15 = call noalias ptr @fopen(ptr noundef %14, ptr noundef @.str.8)
  store ptr %15, ptr %4, align 8
  %16 = icmp eq ptr %15, null
  br i1 %16, label %17, label %19

17:                                               ; preds = %1
  %18 = getelementptr inbounds [1024 x i8], ptr %5, i64 0, i64 0
  call void (ptr, ...) @pg_fatal(ptr noundef @.str.9, ptr noundef %18) #11
  unreachable

19:                                               ; preds = %1
  %20 = load ptr, ptr %4, align 8
  %21 = load ptr, ptr %3, align 8
  %22 = getelementptr inbounds nuw %struct.ClusterInfo, ptr %21, i32 0, i32 10
  %23 = getelementptr inbounds [64 x i8], ptr %22, i64 0, i64 0
  %24 = call i32 (ptr, ptr, ...) @__isoc99_fscanf(ptr noundef %20, ptr noundef @.str.10, ptr noundef %23)
  %25 = icmp eq i32 %24, 0
  br i1 %25, label %32, label %26

26:                                               ; preds = %19
  %27 = load ptr, ptr %3, align 8
  %28 = getelementptr inbounds nuw %struct.ClusterInfo, ptr %27, i32 0, i32 10
  %29 = getelementptr inbounds [64 x i8], ptr %28, i64 0, i64 0
  %30 = call i32 (ptr, ptr, ...) @__isoc99_sscanf(ptr noundef %29, ptr noundef @.str.11, ptr noundef %6, ptr noundef %7) #9
  %31 = icmp slt i32 %30, 1
  br i1 %31, label %32, label %34

32:                                               ; preds = %26, %19
  %33 = getelementptr inbounds [1024 x i8], ptr %5, i64 0, i64 0
  call void (ptr, ...) @pg_fatal(ptr noundef @.str.12, ptr noundef %33) #11
  unreachable

34:                                               ; preds = %26
  %35 = load ptr, ptr %4, align 8
  %36 = call i32 @fclose(ptr noundef %35)
  %37 = load i32, ptr %6, align 4
  %38 = icmp slt i32 %37, 10
  br i1 %38, label %39, label %45

39:                                               ; preds = %34
  %40 = load i32, ptr %6, align 4
  %41 = mul i32 %40, 10000
  %42 = load i32, ptr %7, align 4
  %43 = mul i32 %42, 100
  %44 = add i32 %41, %43
  store i32 %44, ptr %2, align 4
  store i32 1, ptr %8, align 4
  br label %48

45:                                               ; preds = %34
  %46 = load i32, ptr %6, align 4
  %47 = mul i32 %46, 10000
  store i32 %47, ptr %2, align 4
  store i32 1, ptr %8, align 4
  br label %48

48:                                               ; preds = %45, %39
  call void @llvm.lifetime.end.p0(i64 4, ptr %7) #9
  call void @llvm.lifetime.end.p0(i64 4, ptr %6) #9
  call void @llvm.lifetime.end.p0(i64 1024, ptr %5) #9
  call void @llvm.lifetime.end.p0(i64 8, ptr %4) #9
  %49 = load i32, ptr %2, align 4
  ret i32 %49
}