; Function Attrs: nounwind uwtable
define dso_local i32 @get_major_server_version(ptr noundef %0) local_unnamed_addr #0 {
  %2 = alloca [1024 x i8], align 16
  %3 = alloca i32, align 4
  %4 = alloca i32, align 4
  call void @llvm.lifetime.start.p0(i64 1024, ptr nonnull %2) #10
  call void @llvm.lifetime.start.p0(i64 4, ptr nonnull %3) #10
  store i32 0, ptr %3, align 4
  call void @llvm.lifetime.start.p0(i64 4, ptr nonnull %4) #10
  store i32 0, ptr %4, align 4
  %5 = getelementptr inbounds nuw i8, ptr %0, i64 136
  %6 = load ptr, ptr %5, align 8
  %7 = call i32 (ptr, i64, ptr, ...) @pg_snprintf(ptr noundef nonnull %2, i64 noundef 1024, ptr noundef nonnull @.str.7, ptr noundef %6) #10
  %8 = call noalias ptr @fopen(ptr noundef nonnull %2, ptr noundef nonnull @.str.8)
  %9 = icmp eq ptr %8, null
  br i1 %9, label %10, label %11

10:                                               ; preds = %1
  call void (ptr, ...) @pg_fatal(ptr noundef nonnull @.str.9, ptr noundef nonnull %2) #12
  unreachable

11:                                               ; preds = %1
  %12 = getelementptr inbounds nuw i8, ptr %0, i64 184
  %13 = call i32 (ptr, ptr, ...) @__isoc99_fscanf(ptr noundef nonnull %8, ptr noundef nonnull @.str.10, ptr noundef nonnull %12) #10
  %14 = icmp eq i32 %13, 0
  br i1 %14, label %18, label %15

15:                                               ; preds = %11
  %16 = call i32 (ptr, ptr, ...) @__isoc99_sscanf(ptr noundef nonnull %12, ptr noundef nonnull @.str.11, ptr noundef nonnull %3, ptr noundef nonnull %4) #10
  %17 = icmp slt i32 %16, 1
  br i1 %17, label %18, label %19

18:                                               ; preds = %15, %11
  call void (ptr, ...) @pg_fatal(ptr noundef nonnull @.str.12, ptr noundef nonnull %2) #12
  unreachable

19:                                               ; preds = %15
  %20 = call i32 @fclose(ptr noundef nonnull %8)
  %21 = load i32, ptr %3, align 4
  %22 = icmp slt i32 %21, 10
  %23 = mul i32 %21, 10000
  %24 = load i32, ptr %4, align 4
  %25 = mul i32 %24, 100
  %26 = select i1 %22, i32 %25, i32 0
  %.0 = add i32 %23, %26
  call void @llvm.lifetime.end.p0(i64 4, ptr nonnull %4) #10
  call void @llvm.lifetime.end.p0(i64 4, ptr nonnull %3) #10
  call void @llvm.lifetime.end.p0(i64 1024, ptr nonnull %2) #10
  ret i32 %.0
}